; Function Attrs: mustprogress nofree norecurse nosync nounwind willreturn memory(read, argmem: readwrite, inaccessiblemem: none) uwtable
define void @_ZN14duckdb_parquet10StatisticsC2Ev(ptr noundef nonnull align 8 dereferenceable(155) initializes((0, 8)) %0, ptr noundef readonly captures(none) %1) unnamed_addr #7 align 2 personality ptr @__gxx_personality_v0 {
  %3 = load ptr, ptr %1, align 8
  store ptr %3, ptr %0, align 8, !tbaa !22
  %4 = getelementptr inbounds nuw i8, ptr %1, i64 8
  %5 = load ptr, ptr %4, align 8
  %6 = getelementptr i8, ptr %3, i64 -48
  %7 = load i64, ptr %6, align 8
  %8 = getelementptr inbounds i8, ptr %0, i64 %7
  store ptr %5, ptr %8, align 8, !tbaa !22
  %9 = getelementptr inbounds nuw i8, ptr %0, i64 8
  %10 = getelementptr inbounds nuw i8, ptr %0, i64 24
  store ptr %10, ptr %9, align 8, !tbaa !33
  %11 = getelementptr inbounds nuw i8, ptr %0, i64 16
  store i64 0, ptr %11, align 8, !tbaa !39
  store i8 0, ptr %10, align 8, !tbaa !38
  %12 = getelementptr inbounds nuw i8, ptr %0, i64 40
  %13 = getelementptr inbounds nuw i8, ptr %0, i64 56
  store ptr %13, ptr %12, align 8, !tbaa !33
  %14 = getelementptr inbounds nuw i8, ptr %0, i64 48
  store i64 0, ptr %14, align 8, !tbaa !39
  store i8 0, ptr %13, align 8, !tbaa !38
  %15 = getelementptr inbounds nuw i8, ptr %0, i64 72
  %16 = getelementptr inbounds nuw i8, ptr %0, i64 88
  %17 = getelementptr inbounds nuw i8, ptr %0, i64 104
  tail call void @llvm.memset.p0.i64(ptr noundef nonnull align 8 dereferenceable(16) %15, i8 0, i64 16, i1 false)
  store ptr %17, ptr %16, align 8, !tbaa !33
  %18 = getelementptr inbounds nuw i8, ptr %0, i64 96
  store i64 0, ptr %18, align 8, !tbaa !39
  store i8 0, ptr %17, align 8, !tbaa !38
  %19 = getelementptr inbounds nuw i8, ptr %0, i64 120
  %20 = getelementptr inbounds nuw i8, ptr %0, i64 136
  store ptr %20, ptr %19, align 8, !tbaa !33
  %21 = getelementptr inbounds nuw i8, ptr %0, i64 128
  store i64 0, ptr %21, align 8, !tbaa !39
  store i8 0, ptr %20, align 8, !tbaa !38
  %22 = getelementptr inbounds nuw i8, ptr %0, i64 152
  store i8 0, ptr %22, align 8, !tbaa !130
  %23 = getelementptr inbounds nuw i8, ptr %0, i64 153
  store i8 0, ptr %23, align 1, !tbaa !133
  %24 = getelementptr inbounds nuw i8, ptr %0, i64 154
  store i8 0, ptr %24, align 2
  ret void
}